; Function Attrs: nounwind uwtable
define ptr @l_Lean_Compiler_LCNF_ToLCNF_seqToCode(ptr noundef %0, ptr noundef %1, ptr noundef %2, ptr noundef %3, ptr noundef %4, ptr noundef %5, ptr noundef %6) local_unnamed_addr #1 {
  %8 = getelementptr i8, ptr %0, i64 8
  %.val = load i64, ptr %8, align 8, !tbaa !12
  %9 = shl i64 %.val, 1
  %10 = or disjoint i64 %9, 1
  %11 = inttoptr i64 %10 to ptr
  %12 = tail call ptr @l_Lean_Compiler_LCNF_ToLCNF_seqToCode_go(ptr noundef %0, ptr noundef nonnull %11, ptr noundef %1, ptr noundef %2, ptr noundef %3, ptr noundef %4, ptr noundef %5, ptr noundef %6)
  ret ptr %12
}